; Function Attrs: nofree norecurse nosync nounwind memory(argmem: readwrite) uwtable
define internal void @put_vp8_epel4_h6v6_c(ptr noundef writeonly captures(none) %0, i64 noundef %1, ptr noundef readonly captures(none) %2, i64 noundef %3, i32 noundef %4, i32 noundef %5, i32 noundef %6) #1 {
  %8 = alloca [52 x i8], align 16
  call void @llvm.lifetime.start.p0(i64 52, ptr nonnull %8) #5
  %9 = icmp sgt i32 %4, -5
  br i1 %9, label %.preheader73.lr.ph, label %._crit_edge85

.preheader73.lr.ph:                               ; preds = %7
  %.neg = mul i64 %3, -2
  %10 = getelementptr inbounds i8, ptr %2, i64 %.neg
  %11 = add nsw i32 %5, -1
  %12 = sext i32 %11 to i64
  %13 = getelementptr inbounds [7 x [6 x i8]], ptr @subpel_filters, i64 0, i64 %12
  %14 = getelementptr inbounds nuw i8, ptr %13, i64 2
  %15 = load i8, ptr %14, align 2, !tbaa !10
  %16 = zext i8 %15 to i32
  %17 = getelementptr inbounds nuw i8, ptr %13, i64 1
  %18 = load i8, ptr %17, align 1, !tbaa !10
  %19 = zext i8 %18 to i32
  %20 = load i8, ptr %13, align 2, !tbaa !10
  %21 = zext i8 %20 to i32
  %22 = getelementptr inbounds nuw i8, ptr %13, i64 3
  %23 = load i8, ptr %22, align 1, !tbaa !10
  %24 = zext i8 %23 to i32
  %25 = getelementptr inbounds nuw i8, ptr %13, i64 4
  %26 = load i8, ptr %25, align 2, !tbaa !10
  %27 = zext i8 %26 to i32
  %28 = getelementptr inbounds nuw i8, ptr %13, i64 5
  %29 = load i8, ptr %28, align 1, !tbaa !10
  %30 = zext i8 %29 to i32
  %31 = add i32 %4, 4
  %smax = tail call i32 @llvm.smax.i32(i32 %31, i32 0)
  br label %.preheader73

.preheader73:                                     ; preds = %.preheader73.lr.ph, %68
  %.078 = phi ptr [ %8, %.preheader73.lr.ph ], [ %69, %68 ]
  %.06177 = phi i32 [ 0, %.preheader73.lr.ph ], [ %71, %68 ]
  %.06676 = phi ptr [ %10, %.preheader73.lr.ph ], [ %70, %68 ]
  %.pre = load i8, ptr %.06676, align 1, !tbaa !10
  br label %32

32:                                               ; preds = %.preheader73, %32
  %33 = phi i8 [ %.pre, %.preheader73 ], [ %46, %32 ]
  %indvars.iv = phi i64 [ 0, %.preheader73 ], [ %indvars.iv.next, %32 ]
  %34 = getelementptr inbounds nuw i8, ptr %.06676, i64 %indvars.iv
  %35 = zext i8 %33 to i32
  %36 = mul nuw nsw i32 %35, %16
  %37 = getelementptr i8, ptr %34, i64 -1
  %38 = load i8, ptr %37, align 1, !tbaa !10
  %39 = zext i8 %38 to i32
  %40 = mul nuw nsw i32 %19, %39
  %41 = getelementptr i8, ptr %34, i64 -2
  %42 = load i8, ptr %41, align 1, !tbaa !10
  %43 = zext i8 %42 to i32
  %44 = mul nuw nsw i32 %43, %21
  %indvars.iv.next = add nuw nsw i64 %indvars.iv, 1
  %45 = getelementptr inbounds nuw i8, ptr %.06676, i64 %indvars.iv.next
  %46 = load i8, ptr %45, align 1, !tbaa !10
  %47 = zext i8 %46 to i32
  %48 = mul nuw nsw i32 %47, %24
  %49 = getelementptr inbounds nuw i8, ptr %34, i64 2
  %50 = load i8, ptr %49, align 1, !tbaa !10
  %51 = zext i8 %50 to i32
  %52 = mul nuw nsw i32 %27, %51
  %53 = getelementptr inbounds nuw i8, ptr %34, i64 3
  %54 = load i8, ptr %53, align 1, !tbaa !10
  %55 = zext i8 %54 to i32
  %56 = mul nuw nsw i32 %55, %30
  %57 = add nuw nsw i32 %52, %40
  %58 = add nuw nsw i32 %36, 64
  %59 = add nuw nsw i32 %58, %44
  %60 = add nuw nsw i32 %59, %48
  %61 = add nuw nsw i32 %60, %56
  %62 = sub nsw i32 %61, %57
  %63 = ashr i32 %62, 7
  %64 = sext i32 %63 to i64
  %65 = getelementptr inbounds i8, ptr getelementptr inbounds nuw (i8, ptr @ff_crop_tab, i64 1024), i64 %64
  %66 = load i8, ptr %65, align 1, !tbaa !10
  %67 = getelementptr inbounds nuw i8, ptr %.078, i64 %indvars.iv
  store i8 %66, ptr %67, align 1, !tbaa !10
  %exitcond.not = icmp eq i64 %indvars.iv.next, 4
  br i1 %exitcond.not, label %68, label %32, !llvm.loop !81

68:                                               ; preds = %32
  %69 = getelementptr inbounds nuw i8, ptr %.078, i64 4
  %70 = getelementptr inbounds i8, ptr %.06676, i64 %3
  %71 = add nuw i32 %.06177, 1
  %exitcond87.not = icmp eq i32 %.06177, %smax
  br i1 %exitcond87.not, label %._crit_edge, label %.preheader73, !llvm.loop !82

._crit_edge:                                      ; preds = %68
  %72 = icmp sgt i32 %4, 0
  br i1 %72, label %.preheader.lr.ph, label %._crit_edge85

.preheader.lr.ph:                                 ; preds = %._crit_edge
  %73 = add nsw i32 %6, -1
  %74 = sext i32 %73 to i64
  %75 = getelementptr inbounds [7 x [6 x i8]], ptr @subpel_filters, i64 0, i64 %74
  %76 = getelementptr inbounds nuw i8, ptr %8, i64 8
  %77 = getelementptr inbounds nuw i8, ptr %75, i64 2
  %78 = load i8, ptr %77, align 2, !tbaa !10
  %79 = zext i8 %78 to i32
  %80 = getelementptr inbounds nuw i8, ptr %75, i64 1
  %81 = load i8, ptr %80, align 1, !tbaa !10
  %82 = zext i8 %81 to i32
  %83 = load i8, ptr %75, align 2, !tbaa !10
  %84 = zext i8 %83 to i32
  %85 = getelementptr inbounds nuw i8, ptr %75, i64 3
  %86 = load i8, ptr %85, align 1, !tbaa !10
  %87 = zext i8 %86 to i32
  %88 = getelementptr inbounds nuw i8, ptr %75, i64 4
  %89 = load i8, ptr %88, align 2, !tbaa !10
  %90 = zext i8 %89 to i32
  %91 = getelementptr inbounds nuw i8, ptr %75, i64 5
  %92 = load i8, ptr %91, align 1, !tbaa !10
  %93 = zext i8 %92 to i32
  br label %.preheader

.preheader:                                       ; preds = %.preheader.lr.ph, %130
  %.184 = phi ptr [ %76, %.preheader.lr.ph ], [ %132, %130 ]
  %.16283 = phi i32 [ 0, %.preheader.lr.ph ], [ %133, %130 ]
  %.06582 = phi ptr [ %0, %.preheader.lr.ph ], [ %131, %130 ]
  br label %94

94:                                               ; preds = %.preheader, %94
  %indvars.iv88 = phi i64 [ 0, %.preheader ], [ %indvars.iv.next89, %94 ]
  %95 = getelementptr inbounds nuw i8, ptr %.184, i64 %indvars.iv88
  %96 = load i8, ptr %95, align 1, !tbaa !10
  %97 = zext i8 %96 to i32
  %98 = mul nuw nsw i32 %97, %79
  %99 = getelementptr i8, ptr %95, i64 -4
  %100 = load i8, ptr %99, align 1, !tbaa !10
  %101 = zext i8 %100 to i32
  %102 = mul nuw nsw i32 %82, %101
  %103 = getelementptr i8, ptr %95, i64 -8
  %104 = load i8, ptr %103, align 1, !tbaa !10
  %105 = zext i8 %104 to i32
  %106 = mul nuw nsw i32 %105, %84
  %107 = getelementptr inbounds nuw i8, ptr %95, i64 4
  %108 = load i8, ptr %107, align 1, !tbaa !10
  %109 = zext i8 %108 to i32
  %110 = mul nuw nsw i32 %109, %87
  %111 = getelementptr inbounds nuw i8, ptr %95, i64 8
  %112 = load i8, ptr %111, align 1, !tbaa !10
  %113 = zext i8 %112 to i32
  %114 = mul nuw nsw i32 %90, %113
  %115 = getelementptr inbounds nuw i8, ptr %95, i64 12
  %116 = load i8, ptr %115, align 1, !tbaa !10
  %117 = zext i8 %116 to i32
  %118 = mul nuw nsw i32 %117, %93
  %119 = add nuw nsw i32 %114, %102
  %120 = add nuw nsw i32 %98, 64
  %121 = add nuw nsw i32 %120, %106
  %122 = add nuw nsw i32 %121, %110
  %123 = add nuw nsw i32 %122, %118
  %124 = sub nsw i32 %123, %119
  %125 = ashr i32 %124, 7
  %126 = sext i32 %125 to i64
  %127 = getelementptr inbounds i8, ptr getelementptr inbounds nuw (i8, ptr @ff_crop_tab, i64 1024), i64 %126
  %128 = load i8, ptr %127, align 1, !tbaa !10
  %129 = getelementptr inbounds nuw i8, ptr %.06582, i64 %indvars.iv88
  store i8 %128, ptr %129, align 1, !tbaa !10
  %indvars.iv.next89 = add nuw nsw i64 %indvars.iv88, 1
  %exitcond91.not = icmp eq i64 %indvars.iv.next89, 4
  br i1 %exitcond91.not, label %130, label %94, !llvm.loop !83

130:                                              ; preds = %94
  %131 = getelementptr inbounds i8, ptr %.06582, i64 %1
  %132 = getelementptr inbounds nuw i8, ptr %.184, i64 4
  %133 = add nuw nsw i32 %.16283, 1
  %exitcond92.not = icmp eq i32 %133, %4
  br i1 %exitcond92.not, label %._crit_edge85, label %.preheader, !llvm.loop !84

._crit_edge85:                                    ; preds = %130, %7, %._crit_edge
  call void @llvm.lifetime.end.p0(i64 52, ptr nonnull %8) #5
  ret void
}